target datalayout = "e-m:e-p270:32:32-p271:32:32-p272:64:64-i64:64-i128:128-f80:128-n8:16:32:64-S128"
target triple = "x86_64-pc-linux-gnu"

%struct.PaUtilBufferProcessor = type { i64, i64, i32, i32, i32, i32, i64, i32, i32, i32, i32, ptr, ptr, i32, i32, i32, i32, ptr, ptr, i64, i64, ptr, ptr, i64, ptr, ptr, i64, ptr, i64, i32, [2 x i64], [2 x ptr], i32, [2 x i64], [2 x ptr], %struct.PaUtilTriangularDitherGenerator, double, ptr, ptr }
%struct.PaUtilTriangularDitherGenerator = type { i32, i32, i32 }
%struct.PaUtilChannelDescriptor = type { ptr, i32 }

; Function Attrs: nounwind uwtable
define i64 @PaUtil_ZeroOutput(ptr noundef %0, i64 noundef %1) #0 {
  %3 = alloca ptr, align 8
  %4 = alloca i64, align 8
  %5 = alloca ptr, align 8
  %6 = alloca i32, align 4
  %7 = alloca i32, align 4
  store ptr %0, ptr %3, align 8
  store i64 %1, ptr %4, align 8
  %8 = load ptr, ptr %3, align 8
  %9 = getelementptr inbounds nuw %struct.PaUtilBufferProcessor, ptr %8, i32 0, i32 34
  %10 = getelementptr inbounds [2 x ptr], ptr %9, i64 0, i64 0
  %11 = load ptr, ptr %10, align 8
  store ptr %11, ptr %5, align 8
  %12 = load ptr, ptr %3, align 8
  %13 = getelementptr inbounds nuw %struct.PaUtilBufferProcessor, ptr %12, i32 0, i32 33
  %14 = getelementptr inbounds [2 x i64], ptr %13, i64 0, i64 0
  %15 = load i64, ptr %14, align 8
  %16 = load i64, ptr %4, align 8
  %17 = icmp ult i64 %15, %16
  br i1 %17, label %18, label %23

18:                                               ; preds = %2
  %19 = load ptr, ptr %3, align 8
  %20 = getelementptr inbounds nuw %struct.PaUtilBufferProcessor, ptr %19, i32 0, i32 33
  %21 = getelementptr inbounds [2 x i64], ptr %20, i64 0, i64 0
  %22 = load i64, ptr %21, align 8
  br label %25

23:                                               ; preds = %2
  %24 = load i64, ptr %4, align 8
  br label %25

25:                                               ; preds = %23, %18
  %26 = phi i64 [ %22, %18 ], [ %24, %23 ]
  %27 = trunc i64 %26 to i32
  store i32 %27, ptr %6, align 4
  store i32 0, ptr %7, align 4
  br label %28

28:                                               ; preds = %76, %25
  %29 = load i32, ptr %7, align 4
  %30 = load ptr, ptr %3, align 8
  %31 = getelementptr inbounds nuw %struct.PaUtilBufferProcessor, ptr %30, i32 0, i32 13
  %32 = load i32, ptr %31, align 8
  %33 = icmp ult i32 %29, %32
  br i1 %33, label %34, label %79

34:                                               ; preds = %28
  %35 = load ptr, ptr %3, align 8
  %36 = getelementptr inbounds nuw %struct.PaUtilBufferProcessor, ptr %35, i32 0, i32 18
  %37 = load ptr, ptr %36, align 8
  %38 = load ptr, ptr %5, align 8
  %39 = load i32, ptr %7, align 4
  %40 = zext i32 %39 to i64
  %41 = getelementptr inbounds %struct.PaUtilChannelDescriptor, ptr %38, i64 %40
  %42 = getelementptr inbounds nuw %struct.PaUtilChannelDescriptor, ptr %41, i32 0, i32 0
  %43 = load ptr, ptr %42, align 8
  %44 = load ptr, ptr %5, align 8
  %45 = load i32, ptr %7, align 4
  %46 = zext i32 %45 to i64
  %47 = getelementptr inbounds %struct.PaUtilChannelDescriptor, ptr %44, i64 %46
  %48 = getelementptr inbounds nuw %struct.PaUtilChannelDescriptor, ptr %47, i32 0, i32 1
  %49 = load i32, ptr %48, align 8
  %50 = load i32, ptr %6, align 4
  call void %37(ptr noundef %43, i32 noundef %49, i32 noundef %50)
  %51 = load ptr, ptr %5, align 8
  %52 = load i32, ptr %7, align 4
  %53 = zext i32 %52 to i64
  %54 = getelementptr inbounds %struct.PaUtilChannelDescriptor, ptr %51, i64 %53
  %55 = getelementptr inbounds nuw %struct.PaUtilChannelDescriptor, ptr %54, i32 0, i32 0
  %56 = load ptr, ptr %55, align 8
  %57 = load i32, ptr %6, align 4
  %58 = load ptr, ptr %5, align 8
  %59 = load i32, ptr %7, align 4
  %60 = zext i32 %59 to i64
  %61 = getelementptr inbounds %struct.PaUtilChannelDescriptor, ptr %58, i64 %60
  %62 = getelementptr inbounds nuw %struct.PaUtilChannelDescriptor, ptr %61, i32 0, i32 1
  %63 = load i32, ptr %62, align 8
  %64 = mul i32 %57, %63
  %65 = load ptr, ptr %3, align 8
  %66 = getelementptr inbounds nuw %struct.PaUtilBufferProcessor, ptr %65, i32 0, i32 14
  %67 = load i32, ptr %66, align 4
  %68 = mul i32 %64, %67
  %69 = zext i32 %68 to i64
  %70 = getelementptr inbounds i8, ptr %56, i64 %69
  %71 = load ptr, ptr %5, align 8
  %72 = load i32, ptr %7, align 4
  %73 = zext i32 %72 to i64
  %74 = getelementptr inbounds %struct.PaUtilChannelDescriptor, ptr %71, i64 %73
  %75 = getelementptr inbounds nuw %struct.PaUtilChannelDescriptor, ptr %74, i32 0, i32 0
  store ptr %70, ptr %75, align 8
  br label %76

76:                                               ; preds = %34
  %77 = load i32, ptr %7, align 4
  %78 = add i32 %77, 1
  store i32 %78, ptr %7, align 4
  br label %28, !llvm.loop !40

79:                                               ; preds = %28
  %80 = load i32, ptr %6, align 4
  %81 = zext i32 %80 to i64
  %82 = load ptr, ptr %3, align 8
  %83 = getelementptr inbounds nuw %struct.PaUtilBufferProcessor, ptr %82, i32 0, i32 33
  %84 = getelementptr inbounds [2 x i64], ptr %83, i64 0, i64 0
  %85 = load i64, ptr %84, align 8
  %86 = add i64 %85, %81
  store i64 %86, ptr %84, align 8
  %87 = load i32, ptr %6, align 4
  %88 = zext i32 %87 to i64
  ret i64 %88
}