; Function Attrs: nounwind uwtable
define range(i64 0, 4294967296) i64 @PaUtil_ZeroOutput(ptr nocapture noundef %0, i64 noundef %1) local_unnamed_addr #0 {
  %3 = getelementptr inbounds nuw i8, ptr %0, i64 248
  %4 = load ptr, ptr %3, align 8
  %5 = getelementptr inbounds nuw i8, ptr %0, i64 232
  %6 = load i64, ptr %5, align 8
  %. = tail call i64 @llvm.umin.i64(i64 %6, i64 %1)
  %7 = trunc i64 %. to i32
  %8 = getelementptr inbounds nuw i8, ptr %0, i64 72
  %9 = load i32, ptr %8, align 8
  %.not = icmp eq i32 %9, 0
  br i1 %.not, label %._crit_edge, label %.lr.ph

.lr.ph:                                           ; preds = %2
  %10 = getelementptr inbounds nuw i8, ptr %0, i64 96
  %11 = getelementptr inbounds nuw i8, ptr %0, i64 76
  br label %12

12:                                               ; preds = %.lr.ph, %12
  %indvars.iv = phi i64 [ 0, %.lr.ph ], [ %indvars.iv.next, %12 ]
  %13 = load ptr, ptr %10, align 8
  %14 = getelementptr inbounds %struct.PaUtilChannelDescriptor, ptr %4, i64 %indvars.iv
  %15 = load ptr, ptr %14, align 8
  %16 = getelementptr inbounds nuw i8, ptr %14, i64 8
  %17 = load i32, ptr %16, align 8
  tail call void %13(ptr noundef %15, i32 noundef %17, i32 noundef %7) #11
  %18 = load ptr, ptr %14, align 8
  %19 = load i32, ptr %16, align 8
  %20 = mul i32 %19, %7
  %21 = load i32, ptr %11, align 4
  %22 = mul i32 %20, %21
  %23 = zext i32 %22 to i64
  %24 = getelementptr inbounds i8, ptr %18, i64 %23
  store ptr %24, ptr %14, align 8
  %indvars.iv.next = add nuw nsw i64 %indvars.iv, 1
  %25 = load i32, ptr %8, align 8
  %26 = zext i32 %25 to i64
  %27 = icmp ult i64 %indvars.iv.next, %26
  br i1 %27, label %12, label %._crit_edge.loopexit, !llvm.loop !40

._crit_edge.loopexit:                             ; preds = %12
  %.pre = load i64, ptr %5, align 8
  br label %._crit_edge

._crit_edge:                                      ; preds = %._crit_edge.loopexit, %2
  %28 = phi i64 [ %.pre, %._crit_edge.loopexit ], [ %6, %2 ]
  %29 = and i64 %., 4294967295
  %30 = add i64 %28, %29
  store i64 %30, ptr %5, align 8
  ret i64 %29
}